target datalayout = "e-m:e-p270:32:32-p271:32:32-p272:64:64-i64:64-i128:128-f80:128-n8:16:32:64-S128"
target triple = "x86_64-pc-linux-gnu"

%struct.lpFindArg = type { ptr, i32, i32, i64 }

; Function Attrs: nounwind uwtable
define dso_local ptr @lpFind(ptr noundef %0, ptr noundef %1, ptr noundef %2, i32 noundef %3, i32 noundef %4) #0 {
  %6 = alloca ptr, align 8
  %7 = alloca ptr, align 8
  %8 = alloca ptr, align 8
  %9 = alloca i32, align 4
  %10 = alloca i32, align 4
  %11 = alloca %struct.lpFindArg, align 8
  store ptr %0, ptr %6, align 8, !tbaa !5
  store ptr %1, ptr %7, align 8, !tbaa !5
  store ptr %2, ptr %8, align 8, !tbaa !5
  store i32 %3, ptr %9, align 4, !tbaa !15
  store i32 %4, ptr %10, align 4, !tbaa !15
  call void @llvm.lifetime.start.p0(i64 24, ptr %11) #10
  %12 = getelementptr inbounds nuw %struct.lpFindArg, ptr %11, i32 0, i32 0
  %13 = load ptr, ptr %8, align 8, !tbaa !5
  store ptr %13, ptr %12, align 8, !tbaa !28
  %14 = getelementptr inbounds nuw %struct.lpFindArg, ptr %11, i32 0, i32 1
  %15 = load i32, ptr %9, align 4, !tbaa !15
  store i32 %15, ptr %14, align 8, !tbaa !30
  %16 = getelementptr inbounds nuw %struct.lpFindArg, ptr %11, i32 0, i32 2
  store i32 0, ptr %16, align 4, !tbaa !31
  %17 = getelementptr inbounds nuw %struct.lpFindArg, ptr %11, i32 0, i32 3
  store i64 0, ptr %17, align 8, !tbaa !32
  %18 = load ptr, ptr %6, align 8, !tbaa !5
  %19 = load ptr, ptr %7, align 8, !tbaa !5
  %20 = load i32, ptr %10, align 4, !tbaa !15
  %21 = call ptr @lpFindCbInternal(ptr noundef %18, ptr noundef %19, ptr noundef %11, ptr noundef @lpFindCmp, i32 noundef %20)
  call void @llvm.lifetime.end.p0(i64 24, ptr %11) #10
  ret ptr %21
}