; Function Attrs: nounwind uwtable
define dso_local ptr @lpFind(ptr noundef %0, ptr noundef %1, ptr noundef %2, i32 noundef %3, i32 noundef %4) local_unnamed_addr #3 {
  %6 = alloca %struct.lpFindArg, align 8
  call void @llvm.lifetime.start.p0(i64 24, ptr nonnull %6) #20
  store ptr %2, ptr %6, align 8, !tbaa !23
  %7 = getelementptr inbounds nuw i8, ptr %6, i64 8
  store i32 %3, ptr %7, align 8, !tbaa !25
  %8 = getelementptr inbounds nuw i8, ptr %6, i64 12
  store i32 0, ptr %8, align 4, !tbaa !26
  %9 = getelementptr inbounds nuw i8, ptr %6, i64 16
  store i64 0, ptr %9, align 8, !tbaa !27
  %10 = call fastcc ptr @lpFindCbInternal(ptr noundef %0, ptr noundef %1, ptr noundef nonnull %6, ptr noundef nonnull @lpFindCmp, i32 noundef %4)
  call void @llvm.lifetime.end.p0(i64 24, ptr nonnull %6) #20
  ret ptr %10
}